; Function Attrs: nofree nounwind sspstrong uwtable
define dso_local i32 @main() local_unnamed_addr #0 {
  %1 = alloca [101 x [101 x i32]], align 16
  %2 = alloca [101 x [101 x i32]], align 16
  %3 = alloca [101 x [101 x i32]], align 16
  %4 = alloca i32, align 4
  %5 = alloca i32, align 4
  %6 = alloca i32, align 4
  %7 = alloca i32, align 4
  %8 = bitcast [101 x [101 x i32]]* %1 to i8*
  call void @llvm.lifetime.start.p0i8(i64 40804, i8* nonnull %8) #5
  %9 = bitcast [101 x [101 x i32]]* %2 to i8*
  call void @llvm.lifetime.start.p0i8(i64 40804, i8* nonnull %9) #5
  %10 = bitcast [101 x [101 x i32]]* %3 to i8*
  call void @llvm.lifetime.start.p0i8(i64 40804, i8* nonnull %10) #5
  %11 = bitcast i32* %4 to i8*
  call void @llvm.lifetime.start.p0i8(i64 4, i8* nonnull %11) #5
  %12 = bitcast i32* %5 to i8*
  call void @llvm.lifetime.start.p0i8(i64 4, i8* nonnull %12) #5
  %13 = bitcast i32* %6 to i8*
  call void @llvm.lifetime.start.p0i8(i64 4, i8* nonnull %13) #5
  %14 = bitcast i32* %7 to i8*
  call void @llvm.lifetime.start.p0i8(i64 4, i8* nonnull %14) #5
  %15 = call i32 (i8*, ...) @__isoc99_scanf(i8* getelementptr inbounds ([6 x i8], [6 x i8]* @.str, i64 0, i64 0), i32* nonnull %4, i32* nonnull %5)
  %16 = load i32, i32* %4, align 4, !tbaa !5
  %17 = icmp slt i32 %16, 1
  %18 = load i32, i32* %5, align 4
  %19 = icmp slt i32 %18, 1
  %20 = select i1 %17, i1 true, i1 %19
  br i1 %20, label %42, label %21

21:                                               ; preds = %0, %36
  %22 = phi i32 [ %37, %36 ], [ %16, %0 ]
  %23 = phi i32 [ %38, %36 ], [ %18, %0 ]
  %24 = phi i64 [ %39, %36 ], [ 1, %0 ]
  %25 = icmp slt i32 %23, 1
  br i1 %25, label %36, label %26

26:                                               ; preds = %21, %26
  %27 = phi i64 [ %30, %26 ], [ 1, %21 ]
  %28 = getelementptr inbounds [101 x [101 x i32]], [101 x [101 x i32]]* %1, i64 0, i64 %24, i64 %27
  %29 = call i32 (i8*, ...) @__isoc99_scanf(i8* getelementptr inbounds ([3 x i8], [3 x i8]* @.str.1, i64 0, i64 0), i32* nonnull %28)
  %30 = add nuw nsw i64 %27, 1
  %31 = load i32, i32* %5, align 4, !tbaa !5
  %32 = sext i32 %31 to i64
  %33 = icmp slt i64 %27, %32
  br i1 %33, label %26, label %34, !llvm.loop !9

34:                                               ; preds = %26
  %35 = load i32, i32* %4, align 4, !tbaa !5
  br label %36

36:                                               ; preds = %34, %21
  %37 = phi i32 [ %35, %34 ], [ %22, %21 ]
  %38 = phi i32 [ %31, %34 ], [ %23, %21 ]
  %39 = add nuw nsw i64 %24, 1
  %40 = sext i32 %37 to i64
  %41 = icmp slt i64 %24, %40
  br i1 %41, label %21, label %42, !llvm.loop !11

42:                                               ; preds = %36, %0
  %43 = call i32 (i8*, ...) @__isoc99_scanf(i8* getelementptr inbounds ([6 x i8], [6 x i8]* @.str, i64 0, i64 0), i32* nonnull %6, i32* nonnull %7)
  %44 = load i32, i32* %6, align 4, !tbaa !5
  %45 = icmp slt i32 %44, 1
  %46 = load i32, i32* %7, align 4
  %47 = icmp slt i32 %46, 1
  %48 = select i1 %45, i1 true, i1 %47
  br i1 %48, label %54, label %49

49:                                               ; preds = %42, %122
  %50 = phi i32 [ %123, %122 ], [ %44, %42 ]
  %51 = phi i32 [ %124, %122 ], [ %46, %42 ]
  %52 = phi i64 [ %125, %122 ], [ 1, %42 ]
  %53 = icmp slt i32 %51, 1
  br i1 %53, label %122, label %112

54:                                               ; preds = %122, %42
  %55 = phi i32 [ %46, %42 ], [ %124, %122 ]
  %56 = phi i32 [ %44, %42 ], [ %123, %122 ]
  %57 = load i32, i32* %4, align 4, !tbaa !5
  %58 = icmp slt i32 %56, 0
  %59 = icmp slt i32 %57, 1
  br i1 %59, label %206, label %60

60:                                               ; preds = %54
  %61 = icmp slt i32 %55, 1
  br i1 %61, label %141, label %62

62:                                               ; preds = %60
  br i1 %58, label %74, label %63

63:                                               ; preds = %62
  %64 = add nuw i32 %56, 1
  %65 = add nuw i32 %55, 1
  %66 = add nuw i32 %57, 1
  %67 = zext i32 %66 to i64
  %68 = zext i32 %65 to i64
  %69 = zext i32 %64 to i64
  %70 = and i64 %69, 1
  %71 = icmp eq i32 %56, 0
  %72 = and i64 %69, 4294967294
  %73 = icmp eq i64 %70, 0
  br label %128

74:                                               ; preds = %62
  %75 = zext i32 %55 to i64
  %76 = shl nuw nsw i64 %75, 2
  %77 = zext i32 %57 to i64
  %78 = add nsw i64 %77, -1
  %79 = and i64 %77, 7
  %80 = icmp ult i64 %78, 7
  br i1 %80, label %130, label %81

81:                                               ; preds = %74
  %82 = and i64 %77, 4294967288
  br label %83

83:                                               ; preds = %83, %81
  %84 = phi i64 [ 0, %81 ], [ %107, %83 ]
  %85 = phi i64 [ %82, %81 ], [ %110, %83 ]
  %86 = or i64 %84, 1
  %87 = getelementptr [101 x [101 x i32]], [101 x [101 x i32]]* %3, i64 0, i64 %86, i64 1
  %88 = bitcast i32* %87 to i8*
  call void @llvm.memset.p0i8.i64(i8* align 8 %88, i8 0, i64 %76, i1 false)
  %89 = or i64 %84, 2
  %90 = getelementptr [101 x [101 x i32]], [101 x [101 x i32]]* %3, i64 0, i64 %89, i64 1
  %91 = bitcast i32* %90 to i8*
  call void @llvm.memset.p0i8.i64(i8* align 4 %91, i8 0, i64 %76, i1 false)
  %92 = or i64 %84, 3
  %93 = getelementptr [101 x [101 x i32]], [101 x [101 x i32]]* %3, i64 0, i64 %92, i64 1
  %94 = bitcast i32* %93 to i8*
  call void @llvm.memset.p0i8.i64(i8* align 16 %94, i8 0, i64 %76, i1 false)
  %95 = or i64 %84, 4
  %96 = getelementptr [101 x [101 x i32]], [101 x [101 x i32]]* %3, i64 0, i64 %95, i64 1
  %97 = bitcast i32* %96 to i8*
  call void @llvm.memset.p0i8.i64(i8* align 4 %97, i8 0, i64 %76, i1 false)
  %98 = or i64 %84, 5
  %99 = getelementptr [101 x [101 x i32]], [101 x [101 x i32]]* %3, i64 0, i64 %98, i64 1
  %100 = bitcast i32* %99 to i8*
  call void @llvm.memset.p0i8.i64(i8* align 8 %100, i8 0, i64 %76, i1 false)
  %101 = or i64 %84, 6
  %102 = getelementptr [101 x [101 x i32]], [101 x [101 x i32]]* %3, i64 0, i64 %101, i64 1
  %103 = bitcast i32* %102 to i8*
  call void @llvm.memset.p0i8.i64(i8* align 4 %103, i8 0, i64 %76, i1 false)
  %104 = or i64 %84, 7
  %105 = getelementptr [101 x [101 x i32]], [101 x [101 x i32]]* %3, i64 0, i64 %104, i64 1
  %106 = bitcast i32* %105 to i8*
  call void @llvm.memset.p0i8.i64(i8* align 16 %106, i8 0, i64 %76, i1 false)
  %107 = add nuw nsw i64 %84, 8
  %108 = getelementptr [101 x [101 x i32]], [101 x [101 x i32]]* %3, i64 0, i64 %107, i64 1
  %109 = bitcast i32* %108 to i8*
  call void @llvm.memset.p0i8.i64(i8* align 4 %109, i8 0, i64 %76, i1 false)
  %110 = add i64 %85, -8
  %111 = icmp eq i64 %110, 0
  br i1 %111, label %130, label %83, !llvm.loop !13

112:                                              ; preds = %49, %112
  %113 = phi i64 [ %116, %112 ], [ 1, %49 ]
  %114 = getelementptr inbounds [101 x [101 x i32]], [101 x [101 x i32]]* %2, i64 0, i64 %52, i64 %113
  %115 = call i32 (i8*, ...) @__isoc99_scanf(i8* getelementptr inbounds ([3 x i8], [3 x i8]* @.str.1, i64 0, i64 0), i32* nonnull %114)
  %116 = add nuw nsw i64 %113, 1
  %117 = load i32, i32* %7, align 4, !tbaa !5
  %118 = sext i32 %117 to i64
  %119 = icmp slt i64 %113, %118
  br i1 %119, label %112, label %120, !llvm.loop !14

120:                                              ; preds = %112
  %121 = load i32, i32* %6, align 4, !tbaa !5
  br label %122

122:                                              ; preds = %120, %49
  %123 = phi i32 [ %121, %120 ], [ %50, %49 ]
  %124 = phi i32 [ %117, %120 ], [ %51, %49 ]
  %125 = add nuw nsw i64 %52, 1
  %126 = sext i32 %123 to i64
  %127 = icmp slt i64 %52, %126
  br i1 %127, label %49, label %54, !llvm.loop !15

128:                                              ; preds = %63, %181
  %129 = phi i64 [ 1, %63 ], [ %182, %181 ]
  br label %143

130:                                              ; preds = %83, %74
  %131 = phi i64 [ 0, %74 ], [ %107, %83 ]
  %132 = icmp eq i64 %79, 0
  br i1 %132, label %141, label %133

133:                                              ; preds = %130, %133
  %134 = phi i64 [ %136, %133 ], [ %131, %130 ]
  %135 = phi i64 [ %139, %133 ], [ %79, %130 ]
  %136 = add nuw nsw i64 %134, 1
  %137 = getelementptr [101 x [101 x i32]], [101 x [101 x i32]]* %3, i64 0, i64 %136, i64 1
  %138 = bitcast i32* %137 to i8*
  call void @llvm.memset.p0i8.i64(i8* align 4 %138, i8 0, i64 %76, i1 false)
  %139 = add i64 %135, -1
  %140 = icmp eq i64 %139, 0
  br i1 %140, label %141, label %133, !llvm.loop !16

141:                                              ; preds = %181, %130, %133, %60
  %142 = icmp sgt i32 %57, 1
  br i1 %142, label %184, label %206

143:                                              ; preds = %128, %177
  %144 = phi i64 [ 1, %128 ], [ %179, %177 ]
  %145 = getelementptr inbounds [101 x [101 x i32]], [101 x [101 x i32]]* %3, i64 0, i64 %129, i64 %144
  br i1 %71, label %166, label %146

146:                                              ; preds = %143, %146
  %147 = phi i64 [ %163, %146 ], [ 0, %143 ]
  %148 = phi i32 [ %162, %146 ], [ 0, %143 ]
  %149 = phi i64 [ %164, %146 ], [ %72, %143 ]
  %150 = getelementptr inbounds [101 x [101 x i32]], [101 x [101 x i32]]* %1, i64 0, i64 %129, i64 %147
  %151 = load i32, i32* %150, align 4, !tbaa !5
  %152 = getelementptr inbounds [101 x [101 x i32]], [101 x [101 x i32]]* %2, i64 0, i64 %147, i64 %144
  %153 = load i32, i32* %152, align 4, !tbaa !5
  %154 = mul nsw i32 %153, %151
  %155 = add nsw i32 %154, %148
  %156 = or i64 %147, 1
  %157 = getelementptr inbounds [101 x [101 x i32]], [101 x [101 x i32]]* %1, i64 0, i64 %129, i64 %156
  %158 = load i32, i32* %157, align 4, !tbaa !5
  %159 = getelementptr inbounds [101 x [101 x i32]], [101 x [101 x i32]]* %2, i64 0, i64 %156, i64 %144
  %160 = load i32, i32* %159, align 4, !tbaa !5
  %161 = mul nsw i32 %160, %158
  %162 = add nsw i32 %161, %155
  %163 = add nuw nsw i64 %147, 2
  %164 = add i64 %149, -2
  %165 = icmp eq i64 %164, 0
  br i1 %165, label %166, label %146, !llvm.loop !18

166:                                              ; preds = %146, %143
  %167 = phi i32 [ undef, %143 ], [ %162, %146 ]
  %168 = phi i64 [ 0, %143 ], [ %163, %146 ]
  %169 = phi i32 [ 0, %143 ], [ %162, %146 ]
  br i1 %73, label %177, label %170

170:                                              ; preds = %166
  %171 = getelementptr inbounds [101 x [101 x i32]], [101 x [101 x i32]]* %2, i64 0, i64 %168, i64 %144
  %172 = load i32, i32* %171, align 4, !tbaa !5
  %173 = getelementptr inbounds [101 x [101 x i32]], [101 x [101 x i32]]* %1, i64 0, i64 %129, i64 %168
  %174 = load i32, i32* %173, align 4, !tbaa !5
  %175 = mul nsw i32 %172, %174
  %176 = add nsw i32 %175, %169
  br label %177

177:                                              ; preds = %166, %170
  %178 = phi i32 [ %167, %166 ], [ %176, %170 ]
  store i32 %178, i32* %145, align 4, !tbaa !5
  %179 = add nuw nsw i64 %144, 1
  %180 = icmp eq i64 %179, %68
  br i1 %180, label %181, label %143, !llvm.loop !19

181:                                              ; preds = %177
  %182 = add nuw nsw i64 %129, 1
  %183 = icmp eq i64 %182, %67
  br i1 %183, label %141, label %128, !llvm.loop !13

184:                                              ; preds = %141, %200
  %185 = phi i64 [ %202, %200 ], [ 1, %141 ]
  %186 = getelementptr inbounds [101 x [101 x i32]], [101 x [101 x i32]]* %3, i64 0, i64 %185, i64 1
  %187 = load i32, i32* %186, align 4, !tbaa !5
  %188 = call i32 (i8*, ...) @printf(i8* nonnull dereferenceable(1) getelementptr inbounds ([3 x i8], [3 x i8]* @.str.1, i64 0, i64 0), i32 %187)
  %189 = load i32, i32* %7, align 4, !tbaa !5
  %190 = icmp slt i32 %189, 2
  br i1 %190, label %200, label %191

191:                                              ; preds = %184, %191
  %192 = phi i64 [ %196, %191 ], [ 2, %184 ]
  %193 = getelementptr inbounds [101 x [101 x i32]], [101 x [101 x i32]]* %3, i64 0, i64 %185, i64 %192
  %194 = load i32, i32* %193, align 4, !tbaa !5
  %195 = call i32 (i8*, ...) @printf(i8* nonnull dereferenceable(1) getelementptr inbounds ([4 x i8], [4 x i8]* @.str.2, i64 0, i64 0), i32 %194)
  %196 = add nuw nsw i64 %192, 1
  %197 = load i32, i32* %7, align 4, !tbaa !5
  %198 = sext i32 %197 to i64
  %199 = icmp slt i64 %192, %198
  br i1 %199, label %191, label %200, !llvm.loop !20

200:                                              ; preds = %191, %184
  %201 = call i32 @putchar(i32 10)
  %202 = add nuw nsw i64 %185, 1
  %203 = load i32, i32* %4, align 4, !tbaa !5
  %204 = sext i32 %203 to i64
  %205 = icmp slt i64 %202, %204
  br i1 %205, label %184, label %206, !llvm.loop !21

206:                                              ; preds = %200, %141, %54
  %207 = phi i32 [ %57, %54 ], [ %57, %141 ], [ %203, %200 ]
  %208 = sext i32 %207 to i64
  %209 = getelementptr inbounds [101 x [101 x i32]], [101 x [101 x i32]]* %3, i64 0, i64 %208, i64 1
  %210 = load i32, i32* %209, align 4, !tbaa !5
  %211 = call i32 (i8*, ...) @printf(i8* nonnull dereferenceable(1) getelementptr inbounds ([3 x i8], [3 x i8]* @.str.1, i64 0, i64 0), i32 %210)
  %212 = load i32, i32* %7, align 4, !tbaa !5
  %213 = icmp slt i32 %212, 2
  br i1 %213, label %225, label %214

214:                                              ; preds = %206, %214
  %215 = phi i64 [ %221, %214 ], [ 2, %206 ]
  %216 = load i32, i32* %4, align 4, !tbaa !5
  %217 = sext i32 %216 to i64
  %218 = getelementptr inbounds [101 x [101 x i32]], [101 x [101 x i32]]* %3, i64 0, i64 %217, i64 %215
  %219 = load i32, i32* %218, align 4, !tbaa !5
  %220 = call i32 (i8*, ...) @printf(i8* nonnull dereferenceable(1) getelementptr inbounds ([4 x i8], [4 x i8]* @.str.2, i64 0, i64 0), i32 %219)
  %221 = add nuw nsw i64 %215, 1
  %222 = load i32, i32* %7, align 4, !tbaa !5
  %223 = sext i32 %222 to i64
  %224 = icmp slt i64 %215, %223
  br i1 %224, label %214, label %225, !llvm.loop !22

225:                                              ; preds = %214, %206
  call void @llvm.lifetime.end.p0i8(i64 4, i8* nonnull %14) #5
  call void @llvm.lifetime.end.p0i8(i64 4, i8* nonnull %13) #5
  call void @llvm.lifetime.end.p0i8(i64 4, i8* nonnull %12) #5
  call void @llvm.lifetime.end.p0i8(i64 4, i8* nonnull %11) #5
  call void @llvm.lifetime.end.p0i8(i64 40804, i8* nonnull %10) #5
  call void @llvm.lifetime.end.p0i8(i64 40804, i8* nonnull %9) #5
  call void @llvm.lifetime.end.p0i8(i64 40804, i8* nonnull %8) #5
  ret i32 0
}